target datalayout = "e-m:e-p270:32:32-p271:32:32-p272:64:64-i64:64-i128:128-f80:128-n8:16:32:64-S128"
target triple = "x86_64-pc-linux-gnu"

%"class.std::unique_ptr" = type { %"struct.std::__uniq_ptr_data" }
%"struct.std::__uniq_ptr_data" = type { %"class.std::__uniq_ptr_impl" }
%"class.std::__uniq_ptr_impl" = type { %"class.std::tuple" }
%"class.std::tuple" = type { %"struct.std::_Tuple_impl" }
%"struct.std::_Tuple_impl" = type { %"struct.std::_Head_base.2" }
%"struct.std::_Head_base.2" = type { ptr }
%"class.g2o::csparse::CSparse" = type { %"class.std::unique_ptr" }
%"class.g2o::csparse::CSparse::Impl" = type { ptr, i32, ptr, ptr, ptr, %"struct.g2o::csparse::CSparseExt" }
%"struct.g2o::csparse::CSparseExt" = type <{ %struct.cs_di_sparse, i32, [4 x i8] }>
%struct.cs_di_sparse = type { i32, i32, i32, ptr, ptr, ptr, i32 }

; Function Attrs: mustprogress nounwind uwtable
define linkonce_odr noundef nonnull align 8 dereferenceable(8) ptr @_ZNSt10_Head_baseILm0EPN3g2o7csparse7CSparse4ImplELb0EE7_M_headERKS5_(ptr noundef nonnull align 8 dereferenceable(8) %0) #1 comdat align 2 {
  %2 = alloca ptr, align 8
  store ptr %0, ptr %2, align 8, !tbaa !116
  %3 = load ptr, ptr %2, align 8, !tbaa !116
  %4 = getelementptr inbounds nuw %"struct.std::_Head_base.2", ptr %3, i32 0, i32 0
  ret ptr %4
}

; Function Attrs: mustprogress nounwind uwtable
define linkonce_odr noundef nonnull align 8 dereferenceable(8) ptr @_ZNSt11_Tuple_implILm0EJPN3g2o7csparse7CSparse4ImplESt14default_deleteIS3_EEE7_M_headERKS7_(ptr noundef nonnull align 8 dereferenceable(8) %0) #1 comdat align 2 {
  %2 = alloca ptr, align 8
  store ptr %0, ptr %2, align 8, !tbaa !112
  %3 = load ptr, ptr %2, align 8, !tbaa !112
  %4 = call noundef nonnull align 8 dereferenceable(8) ptr @_ZNSt10_Head_baseILm0EPN3g2o7csparse7CSparse4ImplELb0EE7_M_headERKS5_(ptr noundef nonnull align 8 dereferenceable(8) %3) #20
  ret ptr %4
}

; Function Attrs: mustprogress nounwind uwtable
define linkonce_odr noundef nonnull align 8 dereferenceable(8) ptr @_ZSt12__get_helperILm0EPN3g2o7csparse7CSparse4ImplEJSt14default_deleteIS3_EEERKT0_RKSt11_Tuple_implIXT_EJS7_DpT1_EE(ptr noundef nonnull align 8 dereferenceable(8) %0) #1 comdat {
  %2 = alloca ptr, align 8
  store ptr %0, ptr %2, align 8, !tbaa !112
  %3 = load ptr, ptr %2, align 8, !tbaa !112
  %4 = call noundef nonnull align 8 dereferenceable(8) ptr @_ZNSt11_Tuple_implILm0EJPN3g2o7csparse7CSparse4ImplESt14default_deleteIS3_EEE7_M_headERKS7_(ptr noundef nonnull align 8 dereferenceable(8) %3) #20
  ret ptr %4
}

; Function Attrs: mustprogress nounwind uwtable
define linkonce_odr noundef nonnull align 8 dereferenceable(8) ptr @_ZSt3getILm0EJPN3g2o7csparse7CSparse4ImplESt14default_deleteIS3_EEERKNSt13tuple_elementIXT_ESt5tupleIJDpT0_EEE4typeERKSB_(ptr noundef nonnull align 8 dereferenceable(8) %0) #1 comdat {
  %2 = alloca ptr, align 8
  store ptr %0, ptr %2, align 8, !tbaa !110
  %3 = load ptr, ptr %2, align 8, !tbaa !110
  %4 = call noundef nonnull align 8 dereferenceable(8) ptr @_ZSt12__get_helperILm0EPN3g2o7csparse7CSparse4ImplEJSt14default_deleteIS3_EEERKT0_RKSt11_Tuple_implIXT_EJS7_DpT1_EE(ptr noundef nonnull align 8 dereferenceable(8) %3) #20
  ret ptr %4
}

; Function Attrs: mustprogress nounwind uwtable
define linkonce_odr noundef ptr @_ZNKSt15__uniq_ptr_implIN3g2o7csparse7CSparse4ImplESt14default_deleteIS3_EE6_M_ptrEv(ptr noundef nonnull align 8 dereferenceable(8) %0) #1 comdat align 2 {
  %2 = alloca ptr, align 8
  store ptr %0, ptr %2, align 8, !tbaa !108
  %3 = load ptr, ptr %2, align 8
  %4 = getelementptr inbounds nuw %"class.std::__uniq_ptr_impl", ptr %3, i32 0, i32 0
  %5 = call noundef nonnull align 8 dereferenceable(8) ptr @_ZSt3getILm0EJPN3g2o7csparse7CSparse4ImplESt14default_deleteIS3_EEERKNSt13tuple_elementIXT_ESt5tupleIJDpT0_EEE4typeERKSB_(ptr noundef nonnull align 8 dereferenceable(8) %4) #20
  %6 = load ptr, ptr %5, align 8, !tbaa !20
  ret ptr %6
}

; Function Attrs: mustprogress nounwind uwtable
define linkonce_odr noundef ptr @_ZNKSt10unique_ptrIN3g2o7csparse7CSparse4ImplESt14default_deleteIS3_EE3getEv(ptr noundef nonnull align 8 dereferenceable(8) %0) #1 comdat align 2 {
  %2 = alloca ptr, align 8
  store ptr %0, ptr %2, align 8, !tbaa !16
  %3 = load ptr, ptr %2, align 8
  %4 = getelementptr inbounds nuw %"class.std::unique_ptr", ptr %3, i32 0, i32 0
  %5 = call noundef ptr @_ZNKSt15__uniq_ptr_implIN3g2o7csparse7CSparse4ImplESt14default_deleteIS3_EE6_M_ptrEv(ptr noundef nonnull align 8 dereferenceable(8) %4) #20
  ret ptr %5
}

; Function Attrs: mustprogress uwtable
define linkonce_odr void @_ZN3g2o7csparse7CSparse4Impl16prepareWorkspaceEv(ptr noundef nonnull align 8 dereferenceable(96) %0) #3 comdat align 2 {
  %2 = alloca ptr, align 8
  store ptr %0, ptr %2, align 8, !tbaa !20
  %3 = load ptr, ptr %2, align 8
  %4 = getelementptr inbounds nuw %"class.g2o::csparse::CSparse::Impl", ptr %3, i32 0, i32 1
  %5 = load i32, ptr %4, align 8, !tbaa !78
  %6 = getelementptr inbounds nuw %"class.g2o::csparse::CSparse::Impl", ptr %3, i32 0, i32 5
  %7 = getelementptr inbounds nuw %struct.cs_di_sparse, ptr %6, i32 0, i32 2
  %8 = load i32, ptr %7, align 8, !tbaa !44
  %9 = icmp slt i32 %5, %8
  br i1 %9, label %10, label %55

10:                                               ; preds = %1
  %11 = getelementptr inbounds nuw %"class.g2o::csparse::CSparse::Impl", ptr %3, i32 0, i32 1
  %12 = load i32, ptr %11, align 8, !tbaa !78
  %13 = icmp eq i32 %12, 0
  br i1 %13, label %14, label %18

14:                                               ; preds = %10
  %15 = getelementptr inbounds nuw %"class.g2o::csparse::CSparse::Impl", ptr %3, i32 0, i32 5
  %16 = getelementptr inbounds nuw %struct.cs_di_sparse, ptr %15, i32 0, i32 2
  %17 = load i32, ptr %16, align 8, !tbaa !44
  br label %23

18:                                               ; preds = %10
  %19 = getelementptr inbounds nuw %"class.g2o::csparse::CSparse::Impl", ptr %3, i32 0, i32 5
  %20 = getelementptr inbounds nuw %struct.cs_di_sparse, ptr %19, i32 0, i32 2
  %21 = load i32, ptr %20, align 8, !tbaa !44
  %22 = mul nsw i32 2, %21
  br label %23

23:                                               ; preds = %18, %14
  %24 = phi i32 [ %17, %14 ], [ %22, %18 ]
  %25 = getelementptr inbounds nuw %"class.g2o::csparse::CSparse::Impl", ptr %3, i32 0, i32 1
  store i32 %24, ptr %25, align 8, !tbaa !78
  %26 = getelementptr inbounds nuw %"class.g2o::csparse::CSparse::Impl", ptr %3, i32 0, i32 2
  %27 = load ptr, ptr %26, align 8, !tbaa !76
  %28 = icmp eq ptr %27, null
  br i1 %28, label %30, label %29

29:                                               ; preds = %23
  call void @_ZdaPv(ptr noundef %27) #22
  br label %30

30:                                               ; preds = %29, %23
  %31 = getelementptr inbounds nuw %"class.g2o::csparse::CSparse::Impl", ptr %3, i32 0, i32 1
  %32 = load i32, ptr %31, align 8, !tbaa !78
  %33 = sext i32 %32 to i64
  %34 = call { i64, i1 } @llvm.umul.with.overflow.i64(i64 %33, i64 8)
  %35 = extractvalue { i64, i1 } %34, 1
  %36 = extractvalue { i64, i1 } %34, 0
  %37 = select i1 %35, i64 -1, i64 %36
  %38 = call noalias noundef nonnull ptr @_Znam(i64 noundef %37) #21
  %39 = getelementptr inbounds nuw %"class.g2o::csparse::CSparse::Impl", ptr %3, i32 0, i32 2
  store ptr %38, ptr %39, align 8, !tbaa !76
  %40 = getelementptr inbounds nuw %"class.g2o::csparse::CSparse::Impl", ptr %3, i32 0, i32 3
  %41 = load ptr, ptr %40, align 8, !tbaa !77
  %42 = icmp eq ptr %41, null
  br i1 %42, label %44, label %43

43:                                               ; preds = %30
  call void @_ZdaPv(ptr noundef %41) #22
  br label %44

44:                                               ; preds = %43, %30
  %45 = getelementptr inbounds nuw %"class.g2o::csparse::CSparse::Impl", ptr %3, i32 0, i32 1
  %46 = load i32, ptr %45, align 8, !tbaa !78
  %47 = mul nsw i32 2, %46
  %48 = sext i32 %47 to i64
  %49 = call { i64, i1 } @llvm.umul.with.overflow.i64(i64 %48, i64 4)
  %50 = extractvalue { i64, i1 } %49, 1
  %51 = extractvalue { i64, i1 } %49, 0
  %52 = select i1 %50, i64 -1, i64 %51
  %53 = call noalias noundef nonnull ptr @_Znam(i64 noundef %52) #21
  %54 = getelementptr inbounds nuw %"class.g2o::csparse::CSparse::Impl", ptr %3, i32 0, i32 3
  store ptr %53, ptr %54, align 8, !tbaa !77
  br label %55

55:                                               ; preds = %44, %1
  ret void
}

; Function Attrs: mustprogress nounwind uwtable
define linkonce_odr noundef ptr @_ZNKSt10unique_ptrIN3g2o7csparse7CSparse4ImplESt14default_deleteIS3_EEptEv(ptr noundef nonnull align 8 dereferenceable(8) %0) #1 comdat align 2 {
  %2 = alloca ptr, align 8
  store ptr %0, ptr %2, align 8, !tbaa !16
  %3 = load ptr, ptr %2, align 8
  %4 = call noundef ptr @_ZNKSt10unique_ptrIN3g2o7csparse7CSparse4ImplESt14default_deleteIS3_EE3getEv(ptr noundef nonnull align 8 dereferenceable(8) %3) #20
  ret ptr %4
}

; Function Attrs: mustprogress uwtable
define noundef zeroext i1 @_ZNK3g2o7csparse7CSparse5solveEPdS2_(ptr noundef nonnull align 8 dereferenceable(8) %0, ptr noundef %1, ptr noundef %2) #3 align 2 {
  %4 = alloca ptr, align 8
  %5 = alloca ptr, align 8
  %6 = alloca ptr, align 8
  %7 = alloca i32, align 4
  store ptr %0, ptr %4, align 8, !tbaa !14
  store ptr %1, ptr %5, align 8, !tbaa !75
  store ptr %2, ptr %6, align 8, !tbaa !75
  %8 = load ptr, ptr %4, align 8
  %9 = getelementptr inbounds nuw %"class.g2o::csparse::CSparse", ptr %8, i32 0, i32 0
  %10 = call noundef ptr @_ZNKSt10unique_ptrIN3g2o7csparse7CSparse4ImplESt14default_deleteIS3_EEptEv(ptr noundef nonnull align 8 dereferenceable(8) %9) #20
  call void @_ZN3g2o7csparse7CSparse4Impl16prepareWorkspaceEv(ptr noundef nonnull align 8 dereferenceable(96) %10)
  %11 = load ptr, ptr %5, align 8, !tbaa !75
  %12 = load ptr, ptr %6, align 8, !tbaa !75
  %13 = icmp ne ptr %11, %12
  br i1 %13, label %14, label %24

14:                                               ; preds = %3
  %15 = load ptr, ptr %5, align 8, !tbaa !75
  %16 = load ptr, ptr %6, align 8, !tbaa !75
  %17 = getelementptr inbounds nuw %"class.g2o::csparse::CSparse", ptr %8, i32 0, i32 0
  %18 = call noundef ptr @_ZNKSt10unique_ptrIN3g2o7csparse7CSparse4ImplESt14default_deleteIS3_EEptEv(ptr noundef nonnull align 8 dereferenceable(8) %17) #20
  %19 = getelementptr inbounds nuw %"class.g2o::csparse::CSparse::Impl", ptr %18, i32 0, i32 5
  %20 = getelementptr inbounds nuw %struct.cs_di_sparse, ptr %19, i32 0, i32 2
  %21 = load i32, ptr %20, align 8, !tbaa !44
  %22 = sext i32 %21 to i64
  %23 = mul i64 %22, 8
  call void @llvm.memcpy.p0.p0.i64(ptr align 8 %15, ptr align 8 %16, i64 %23, i1 false)
  br label %24

24:                                               ; preds = %14, %3
  call void @llvm.lifetime.start.p0(i64 4, ptr %7) #20
  %25 = getelementptr inbounds nuw %"class.g2o::csparse::CSparse", ptr %8, i32 0, i32 0
  %26 = call noundef ptr @_ZNKSt10unique_ptrIN3g2o7csparse7CSparse4ImplESt14default_deleteIS3_EEptEv(ptr noundef nonnull align 8 dereferenceable(8) %25) #20
  %27 = getelementptr inbounds nuw %"class.g2o::csparse::CSparse::Impl", ptr %26, i32 0, i32 5
  %28 = load ptr, ptr %5, align 8, !tbaa !75
  %29 = getelementptr inbounds nuw %"class.g2o::csparse::CSparse", ptr %8, i32 0, i32 0
  %30 = call noundef ptr @_ZNKSt10unique_ptrIN3g2o7csparse7CSparse4ImplESt14default_deleteIS3_EEptEv(ptr noundef nonnull align 8 dereferenceable(8) %29) #20
  %31 = getelementptr inbounds nuw %"class.g2o::csparse::CSparse::Impl", ptr %30, i32 0, i32 0
  %32 = load ptr, ptr %31, align 8, !tbaa !72
  %33 = getelementptr inbounds nuw %"class.g2o::csparse::CSparse", ptr %8, i32 0, i32 0
  %34 = call noundef ptr @_ZNKSt10unique_ptrIN3g2o7csparse7CSparse4ImplESt14default_deleteIS3_EEptEv(ptr noundef nonnull align 8 dereferenceable(8) %33) #20
  %35 = getelementptr inbounds nuw %"class.g2o::csparse::CSparse::Impl", ptr %34, i32 0, i32 2
  %36 = load ptr, ptr %35, align 8, !tbaa !76
  %37 = getelementptr inbounds nuw %"class.g2o::csparse::CSparse", ptr %8, i32 0, i32 0
  %38 = call noundef ptr @_ZNKSt10unique_ptrIN3g2o7csparse7CSparse4ImplESt14default_deleteIS3_EEptEv(ptr noundef nonnull align 8 dereferenceable(8) %37) #20
  %39 = getelementptr inbounds nuw %"class.g2o::csparse::CSparse::Impl", ptr %38, i32 0, i32 3
  %40 = load ptr, ptr %39, align 8, !tbaa !77
  %41 = call noundef i32 @_ZN3g2o17csparse_extension14cs_cholsolsymbEPK12cs_di_sparsePdPK14cs_di_symbolicS4_Pi(ptr noundef %27, ptr noundef %28, ptr noundef %32, ptr noundef %36, ptr noundef %40)
  store i32 %41, ptr %7, align 4, !tbaa !39
  %42 = load i32, ptr %7, align 4, !tbaa !39
  %43 = icmp ne i32 %42, 0
  call void @llvm.lifetime.end.p0(i64 4, ptr %7) #20
  ret i1 %43
}