; Function Attrs: mustprogress uwtable
define noundef zeroext i1 @_ZNK3g2o7csparse7CSparse5solveEPdS2_(ptr noundef nonnull readonly align 8 captures(none) dereferenceable(8) %0, ptr noundef %1, ptr noundef readonly captures(address) %2) local_unnamed_addr #0 align 2 {
  %4 = load ptr, ptr %0, align 8, !tbaa !14
  %5 = getelementptr inbounds nuw i8, ptr %4, i64 8
  %6 = load i32, ptr %5, align 8, !tbaa !53
  %7 = getelementptr inbounds nuw i8, ptr %4, i64 48
  %8 = load i32, ptr %7, align 8, !tbaa !30
  %9 = icmp slt i32 %6, %8
  br i1 %9, label %10, label %_ZN3g2o7csparse7CSparse4Impl16prepareWorkspaceEv.exit

10:                                               ; preds = %3
  %11 = icmp ne i32 %6, 0
  %12 = zext i1 %11 to i32
  %13 = shl nsw i32 %8, %12
  store i32 %13, ptr %5, align 8, !tbaa !53
  %14 = getelementptr inbounds nuw i8, ptr %4, i64 16
  %15 = load ptr, ptr %14, align 8, !tbaa !54
  %16 = icmp eq ptr %15, null
  br i1 %16, label %18, label %17

17:                                               ; preds = %10
  tail call void @_ZdaPv(ptr noundef nonnull %15) #21
  %.pre.i = load i32, ptr %5, align 8, !tbaa !53
  br label %18

18:                                               ; preds = %17, %10
  %19 = phi i32 [ %.pre.i, %17 ], [ %13, %10 ]
  %20 = sext i32 %19 to i64
  %21 = icmp slt i32 %19, 0
  %22 = shl nsw i64 %20, 3
  %23 = select i1 %21, i64 -1, i64 %22
  %24 = tail call noalias noundef nonnull ptr @_Znam(i64 noundef %23) #19
  store ptr %24, ptr %14, align 8, !tbaa !54
  %25 = getelementptr inbounds nuw i8, ptr %4, i64 24
  %26 = load ptr, ptr %25, align 8, !tbaa !55
  %27 = icmp eq ptr %26, null
  br i1 %27, label %29, label %28

28:                                               ; preds = %18
  tail call void @_ZdaPv(ptr noundef nonnull %26) #21
  %.pre4.i = load i32, ptr %5, align 8, !tbaa !53
  br label %29

29:                                               ; preds = %28, %18
  %30 = phi i32 [ %.pre4.i, %28 ], [ %19, %18 ]
  %31 = shl nsw i32 %30, 1
  %32 = sext i32 %31 to i64
  %33 = icmp slt i32 %30, 0
  %34 = shl nsw i64 %32, 2
  %35 = select i1 %33, i64 -1, i64 %34
  %36 = tail call noalias noundef nonnull ptr @_Znam(i64 noundef %35) #19
  store ptr %36, ptr %25, align 8, !tbaa !55
  %.pre7.pre = load ptr, ptr %0, align 8, !tbaa !14
  br label %_ZN3g2o7csparse7CSparse4Impl16prepareWorkspaceEv.exit

_ZN3g2o7csparse7CSparse4Impl16prepareWorkspaceEv.exit: ; preds = %3, %29
  %.pre7 = phi ptr [ %4, %3 ], [ %.pre7.pre, %29 ]
  %.not = icmp eq ptr %1, %2
  br i1 %.not, label %42, label %37

37:                                               ; preds = %_ZN3g2o7csparse7CSparse4Impl16prepareWorkspaceEv.exit
  %38 = getelementptr inbounds nuw i8, ptr %.pre7, i64 48
  %39 = load i32, ptr %38, align 8, !tbaa !30
  %40 = sext i32 %39 to i64
  %41 = shl nsw i64 %40, 3
  tail call void @llvm.memcpy.p0.p0.i64(ptr align 8 %1, ptr align 8 %2, i64 %41, i1 false)
  %.pre = load ptr, ptr %0, align 8, !tbaa !14
  br label %42

42:                                               ; preds = %37, %_ZN3g2o7csparse7CSparse4Impl16prepareWorkspaceEv.exit
  %43 = phi ptr [ %.pre, %37 ], [ %.pre7, %_ZN3g2o7csparse7CSparse4Impl16prepareWorkspaceEv.exit ]
  %44 = getelementptr inbounds nuw i8, ptr %43, i64 40
  %45 = load ptr, ptr %43, align 8, !tbaa !52
  %46 = getelementptr inbounds nuw i8, ptr %43, i64 16
  %47 = load ptr, ptr %46, align 8, !tbaa !54
  %48 = getelementptr inbounds nuw i8, ptr %43, i64 24
  %49 = load ptr, ptr %48, align 8, !tbaa !55
  %50 = tail call noundef i32 @_ZN3g2o17csparse_extension14cs_cholsolsymbEPK12cs_di_sparsePdPK14cs_di_symbolicS4_Pi(ptr noundef nonnull %44, ptr noundef %1, ptr noundef %45, ptr noundef %47, ptr noundef %49)
  %51 = icmp ne i32 %50, 0
  ret i1 %51
}